; Function Attrs: mustprogress nofree norecurse nosync nounwind willreturn memory(read, inaccessiblemem: none) uwtable
define noundef ptr @_ZNK14disassembler_t6lookupE6insn_t(ptr nocapture noundef nonnull readonly align 8 dereferenceable(6144) %0, i64 %1) local_unnamed_addr #2 align 2 {
  %3 = trunc i64 %1 to i16
  %.lhs.trunc.i = and i64 %1, 127
  %4 = getelementptr inbounds [256 x %"class.std::vector"], ptr %0, i64 0, i64 %.lhs.trunc.i
  %5 = getelementptr inbounds i8, ptr %4, i64 8
  %6 = load ptr, ptr %5, align 8, !noalias !24
  %7 = load ptr, ptr %4, align 8, !noalias !27
  br label %8

8:                                                ; preds = %10, %2
  %.sroa.04.0.i = phi ptr [ %6, %2 ], [ %11, %10 ]
  %9 = icmp eq ptr %.sroa.04.0.i, %7
  br i1 %9, label %20, label %10

10:                                               ; preds = %8
  %11 = getelementptr inbounds i8, ptr %.sroa.04.0.i, i64 -8
  %12 = load ptr, ptr %11, align 8
  %13 = getelementptr inbounds i8, ptr %12, i64 4
  %14 = load i32, ptr %13, align 4
  %15 = zext i32 %14 to i64
  %16 = and i64 %15, %1
  %17 = load i32, ptr %12, align 8
  %18 = zext i32 %17 to i64
  %19 = icmp eq i64 %16, %18
  br i1 %19, label %_ZNK14disassembler_t10probe_onceE6insn_tm.exit, label %8, !llvm.loop !10

20:                                               ; preds = %8
  %.lhs.trunc.i11 = and i16 %3, -8189
  %21 = urem i16 %.lhs.trunc.i11, 255
  %22 = zext nneg i16 %21 to i64
  %23 = getelementptr inbounds [256 x %"class.std::vector"], ptr %0, i64 0, i64 %22
  %24 = getelementptr inbounds i8, ptr %23, i64 8
  %25 = load ptr, ptr %24, align 8, !noalias !30
  %26 = load ptr, ptr %23, align 8, !noalias !33
  br label %27

27:                                               ; preds = %29, %20
  %.sroa.04.0.i12 = phi ptr [ %25, %20 ], [ %30, %29 ]
  %28 = icmp eq ptr %.sroa.04.0.i12, %26
  br i1 %28, label %39, label %29

29:                                               ; preds = %27
  %30 = getelementptr inbounds i8, ptr %.sroa.04.0.i12, i64 -8
  %31 = load ptr, ptr %30, align 8
  %32 = getelementptr inbounds i8, ptr %31, i64 4
  %33 = load i32, ptr %32, align 4
  %34 = zext i32 %33 to i64
  %35 = and i64 %34, %1
  %36 = load i32, ptr %31, align 8
  %37 = zext i32 %36 to i64
  %38 = icmp eq i64 %35, %37
  br i1 %38, label %_ZNK14disassembler_t10probe_onceE6insn_tm.exit, label %27, !llvm.loop !10

39:                                               ; preds = %27
  %40 = getelementptr inbounds i8, ptr %0, i64 6120
  %41 = getelementptr inbounds i8, ptr %0, i64 6128
  %42 = load ptr, ptr %41, align 8, !noalias !36
  %43 = load ptr, ptr %40, align 8, !noalias !39
  br label %44

44:                                               ; preds = %46, %39
  %.sroa.04.0.i15 = phi ptr [ %42, %39 ], [ %47, %46 ]
  %45 = icmp eq ptr %.sroa.04.0.i15, %43
  br i1 %45, label %_ZNK14disassembler_t10probe_onceE6insn_tm.exit, label %46

46:                                               ; preds = %44
  %47 = getelementptr inbounds i8, ptr %.sroa.04.0.i15, i64 -8
  %48 = load ptr, ptr %47, align 8
  %49 = getelementptr inbounds i8, ptr %48, i64 4
  %50 = load i32, ptr %49, align 4
  %51 = zext i32 %50 to i64
  %52 = and i64 %51, %1
  %53 = load i32, ptr %48, align 8
  %54 = zext i32 %53 to i64
  %55 = icmp eq i64 %52, %54
  br i1 %55, label %_ZNK14disassembler_t10probe_onceE6insn_tm.exit, label %44, !llvm.loop !10

_ZNK14disassembler_t10probe_onceE6insn_tm.exit:   ; preds = %10, %29, %46, %44
  %.0 = phi ptr [ %48, %46 ], [ null, %44 ], [ %31, %29 ], [ %12, %10 ]
  ret ptr %.0
}